; Function Attrs: mustprogress nounwind null_pointer_is_valid sspstrong uwtable
define void @_ZN16ExpertInfoDialogD2Ev(ptr noundef align 8 dereferenceable_or_null(232) initializes((0, 8), (16, 24)) %0) unnamed_addr #9 align 2 {
  store ptr getelementptr inbounds nuw inrange(-16, 496) (i8, ptr @_ZTV16ExpertInfoDialog, i64 16), ptr %0, align 8
  %2 = getelementptr inbounds nuw i8, ptr %0, i64 16
  store ptr getelementptr inbounds nuw inrange(-16, 64) (i8, ptr @_ZTV16ExpertInfoDialog, i64 528), ptr %2, align 8
  %3 = getelementptr inbounds nuw i8, ptr %0, i64 144
  %4 = load ptr, ptr %3, align 8
  %5 = icmp eq ptr %4, null
  br i1 %5, label %7, label %6

6:                                                ; preds = %1
  tail call void @_ZdlPvm(ptr noundef nonnull %4, i64 noundef 152) #21
  br label %7

7:                                                ; preds = %6, %1
  %8 = getelementptr inbounds nuw i8, ptr %0, i64 160
  %9 = load ptr, ptr %8, align 8
  %10 = icmp eq ptr %9, null
  br i1 %10, label %15, label %11

11:                                               ; preds = %7
  %12 = load ptr, ptr %9, align 8
  %13 = getelementptr inbounds nuw i8, ptr %12, i64 32
  %14 = load ptr, ptr %13, align 8
  tail call void %14(ptr noundef nonnull align 8 dereferenceable_or_null(72) %9) #20
  br label %15

15:                                               ; preds = %11, %7
  %16 = getelementptr inbounds nuw i8, ptr %0, i64 152
  %17 = load ptr, ptr %16, align 8
  %18 = icmp eq ptr %17, null
  br i1 %18, label %23, label %19

19:                                               ; preds = %15
  %20 = load ptr, ptr %17, align 8
  %21 = getelementptr inbounds nuw i8, ptr %20, i64 32
  %22 = load ptr, ptr %21, align 8
  tail call void %22(ptr noundef nonnull align 8 dereferenceable_or_null(48) %17) #20
  br label %23

23:                                               ; preds = %19, %15
  %24 = getelementptr inbounds nuw i8, ptr %0, i64 208
  %25 = load ptr, ptr %24, align 8
  %.not.i.i.i = icmp eq ptr %25, null
  br i1 %.not.i.i.i, label %_ZN7QStringD2Ev.exit, label %_ZN17QArrayDataPointerIDsE5derefEv.exit.i.i

_ZN17QArrayDataPointerIDsE5derefEv.exit.i.i:      ; preds = %23
  %26 = atomicrmw sub ptr %25, i32 1 seq_cst, align 4
  %.not.i.i = icmp eq i32 %26, 1
  br i1 %.not.i.i, label %27, label %_ZN7QStringD2Ev.exit

27:                                               ; preds = %_ZN17QArrayDataPointerIDsE5derefEv.exit.i.i
  %28 = load ptr, ptr %24, align 8
  tail call void @_ZN10QArrayData10deallocateEPS_xx(ptr noundef %28, i64 noundef 2, i64 noundef 8) #20
  br label %_ZN7QStringD2Ev.exit

_ZN7QStringD2Ev.exit:                             ; preds = %23, %_ZN17QArrayDataPointerIDsE5derefEv.exit.i.i, %27
  %29 = getelementptr inbounds nuw i8, ptr %0, i64 168
  tail call void @_ZN5QMenuD1Ev(ptr noundef nonnull align 8 dereferenceable_or_null(40) %29) #20
  store ptr getelementptr inbounds nuw inrange(-16, 496) (i8, ptr @_ZTV15WiresharkDialog, i64 16), ptr %0, align 8
  store ptr getelementptr inbounds nuw inrange(-16, 64) (i8, ptr @_ZTV15WiresharkDialog, i64 528), ptr %2, align 8
  %30 = getelementptr inbounds nuw i8, ptr %0, i64 112
  %31 = load ptr, ptr %30, align 8
  %.not.i.i.i.i = icmp eq ptr %31, null
  br i1 %.not.i.i.i.i, label %_ZN5QListIPvED2Ev.exit.i, label %_ZN17QArrayDataPointerIPvE5derefEv.exit.i.i.i

_ZN17QArrayDataPointerIPvE5derefEv.exit.i.i.i:    ; preds = %_ZN7QStringD2Ev.exit
  %32 = atomicrmw sub ptr %31, i32 1 seq_cst, align 4
  %.not.i.i.i3 = icmp eq i32 %32, 1
  br i1 %.not.i.i.i3, label %33, label %_ZN5QListIPvED2Ev.exit.i

33:                                               ; preds = %_ZN17QArrayDataPointerIPvE5derefEv.exit.i.i.i
  %34 = load ptr, ptr %30, align 8
  tail call void @_ZN10QArrayData10deallocateEPS_xx(ptr noundef %34, i64 noundef 8, i64 noundef 8) #20
  br label %_ZN5QListIPvED2Ev.exit.i

_ZN5QListIPvED2Ev.exit.i:                         ; preds = %33, %_ZN17QArrayDataPointerIPvE5derefEv.exit.i.i.i, %_ZN7QStringD2Ev.exit
  %35 = getelementptr inbounds nuw i8, ptr %0, i64 88
  %36 = load ptr, ptr %35, align 8
  %.not.i.i.i1.i = icmp eq ptr %36, null
  br i1 %.not.i.i.i1.i, label %_ZN15WiresharkDialogD2Ev.exit, label %_ZN17QArrayDataPointerIDsE5derefEv.exit.i.i.i

_ZN17QArrayDataPointerIDsE5derefEv.exit.i.i.i:    ; preds = %_ZN5QListIPvED2Ev.exit.i
  %37 = atomicrmw sub ptr %36, i32 1 seq_cst, align 4
  %.not.i.i2.i = icmp eq i32 %37, 1
  br i1 %.not.i.i2.i, label %38, label %_ZN15WiresharkDialogD2Ev.exit

38:                                               ; preds = %_ZN17QArrayDataPointerIDsE5derefEv.exit.i.i.i
  %39 = load ptr, ptr %35, align 8
  tail call void @_ZN10QArrayData10deallocateEPS_xx(ptr noundef %39, i64 noundef 2, i64 noundef 8) #20
  br label %_ZN15WiresharkDialogD2Ev.exit

_ZN15WiresharkDialogD2Ev.exit:                    ; preds = %_ZN5QListIPvED2Ev.exit.i, %_ZN17QArrayDataPointerIDsE5derefEv.exit.i.i.i, %38
  tail call void @_ZN19GeometryStateDialogD2Ev(ptr noundef align 8 dereferenceable_or_null(141) %0) #20
  ret void
}